; Function Attrs: mustprogress nofree nounwind uwtable
define void @_Z7pr_realP8_IO_FILEiPKcf(ptr nocapture noundef %0, i32 noundef %1, ptr noundef %2, float noundef %3) local_unnamed_addr #0 {
  %5 = icmp sgt i32 %1, 0
  br i1 %5, label %.lr.ph.i, label %_Z9pr_indentP8_IO_FILEi.exit

.lr.ph.i:                                         ; preds = %4, %.lr.ph.i
  %.05.i = phi i32 [ %6, %.lr.ph.i ], [ 0, %4 ]
  %fputc.i = tail call i32 @fputc(i32 32, ptr %0)
  %6 = add nuw nsw i32 %.05.i, 1
  %exitcond.not.i = icmp eq i32 %6, %1
  br i1 %exitcond.not.i, label %_Z9pr_indentP8_IO_FILEi.exit, label %.lr.ph.i, !llvm.loop !5

_Z9pr_indentP8_IO_FILEi.exit:                     ; preds = %.lr.ph.i, %4
  %7 = fpext float %3 to double
  %8 = tail call i32 (ptr, ptr, ...) @fprintf(ptr noundef %0, ptr noundef nonnull @.str.16, ptr noundef %2, double noundef %7) #6
  ret void
}